target datalayout = "e-m:e-p270:32:32-p271:32:32-p272:64:64-i64:64-i128:128-f80:128-n8:16:32:64-S128"
target triple = "x86_64-pc-linux-gnu"

%union.pthread_mutex_t = type { %struct.__pthread_mutex_s }
%struct.__pthread_mutex_s = type { i32, i32, i32, i32, i32, i16, i16, %struct.__pthread_internal_list }
%struct.__pthread_internal_list = type { ptr, ptr }
%struct.slurm_proctrack_ops = type { ptr, ptr, ptr, ptr, ptr, ptr, ptr, ptr }
%struct.stepd_step_rec_t = type { ptr, ptr, i32, %union.pthread_cond_t, %union.pthread_mutex_t, %struct.slurm_step_id_msg, i32, i32, i32, i32, i32, i32, ptr, ptr, i32, i32, ptr, i32, i32, i32, i32, i32, ptr, ptr, ptr, ptr, i32, i32, i64, i64, i16, i32, ptr, ptr, ptr, i32, ptr, i32, ptr, i32, ptr, i16, i32, i32, i32, ptr, i32, ptr, ptr, ptr, ptr, i32, i32, ptr, ptr, i8, i8, i8, i64, i32, ptr, ptr, ptr, ptr, ptr, ptr, ptr, ptr, ptr, ptr, i32, i32, ptr, i8, %union.pthread_cond_t, %union.pthread_mutex_t, i64, ptr, i32, i32, i32, ptr, i64, ptr, ptr, i8, ptr, i16, ptr, ptr, ptr, ptr, ptr, ptr, i64, ptr, i64, ptr, i16, i8, i16, i32, ptr, i16, ptr, ptr, i16, ptr, ptr, ptr, i8 }
%struct.slurm_step_id_msg = type { i64, i32, i32, i32 }
%union.pthread_cond_t = type { %struct.__pthread_cond_s }
%struct.__pthread_cond_s = type { %union.__atomic_wide_counter, %union.__atomic_wide_counter, [2 x i32], [2 x i32], i32, i32, [2 x i32] }
%union.__atomic_wide_counter = type { i64 }

@ops = internal global %struct.slurm_proctrack_ops zeroinitializer, align 8
@.str.4 = private unnamed_addr constant [57 x i8] c"%s: %u.%u couldn't add pid %u, sleeping and trying again\00", align 1
@__func__.proctrack_g_add = private unnamed_addr constant [16 x i8] c"proctrack_g_add\00", align 1

; Function Attrs: nounwind uwtable
define dso_local i32 @proctrack_g_add(ptr noundef %0, i32 noundef %1) #0 {
  %3 = alloca ptr, align 8
  %4 = alloca i32, align 4
  %5 = alloca i32, align 4
  %6 = alloca i32, align 4
  %7 = alloca i32, align 4
  store ptr %0, ptr %3, align 8
  store i32 %1, ptr %4, align 4
  call void @llvm.lifetime.start.p0(i64 4, ptr %5) #8
  store i32 0, ptr %5, align 4
  call void @llvm.lifetime.start.p0(i64 4, ptr %6) #8
  store i32 3, ptr %6, align 4
  call void @llvm.lifetime.start.p0(i64 4, ptr %7) #8
  br label %8

8:                                                ; preds = %39, %2
  %9 = load ptr, ptr getelementptr inbounds nuw (%struct.slurm_proctrack_ops, ptr @ops, i32 0, i32 1), align 8
  %10 = load ptr, ptr %3, align 8
  %11 = load i32, ptr %4, align 4
  %12 = call i32 %9(ptr noundef %10, i32 noundef %11)
  store i32 %12, ptr %7, align 4
  %13 = icmp ne i32 %12, 0
  br i1 %13, label %14, label %41

14:                                               ; preds = %8
  %15 = load i32, ptr %5, align 4
  %16 = add nsw i32 %15, 1
  store i32 %16, ptr %5, align 4
  %17 = load i32, ptr %6, align 4
  %18 = icmp sgt i32 %15, %17
  br i1 %18, label %19, label %20

19:                                               ; preds = %14
  br label %41

20:                                               ; preds = %14
  br label %21

21:                                               ; preds = %20
  br label %22

22:                                               ; preds = %21
  %23 = call i32 @get_log_level()
  %24 = icmp sge i32 %23, 5
  br i1 %24, label %25, label %35

25:                                               ; preds = %22
  %26 = load ptr, ptr %3, align 8
  %27 = getelementptr inbounds nuw %struct.stepd_step_rec_t, ptr %26, i32 0, i32 5
  %28 = getelementptr inbounds nuw %struct.slurm_step_id_msg, ptr %27, i32 0, i32 1
  %29 = load i32, ptr %28, align 8
  %30 = load ptr, ptr %3, align 8
  %31 = getelementptr inbounds nuw %struct.stepd_step_rec_t, ptr %30, i32 0, i32 5
  %32 = getelementptr inbounds nuw %struct.slurm_step_id_msg, ptr %31, i32 0, i32 3
  %33 = load i32, ptr %32, align 8
  %34 = load i32, ptr %4, align 4
  call void (i32, ptr, ...) @log_var(i32 noundef 5, ptr noundef @.str.4, ptr noundef @__func__.proctrack_g_add, i32 noundef %29, i32 noundef %33, i32 noundef %34)
  br label %35

35:                                               ; preds = %25, %22
  br label %36

36:                                               ; preds = %35
  br label %37

37:                                               ; preds = %36
  br label %38

38:                                               ; preds = %37
  br label %39

39:                                               ; preds = %38
  %40 = call i32 @sleep(i32 noundef 1)
  br label %8, !llvm.loop !8

41:                                               ; preds = %19, %8
  %42 = load i32, ptr %7, align 4
  call void @llvm.lifetime.end.p0(i64 4, ptr %7) #8
  call void @llvm.lifetime.end.p0(i64 4, ptr %6) #8
  call void @llvm.lifetime.end.p0(i64 4, ptr %5) #8
  ret i32 %42
}