; Function Attrs: nounwind uwtable
define dso_local i32 @proctrack_g_add(ptr noundef %0, i32 noundef %1) local_unnamed_addr #0 {
  %3 = load ptr, ptr getelementptr inbounds nuw (i8, ptr @ops, i64 8), align 8
  %4 = tail call i32 %3(ptr noundef %0, i32 noundef %1) #10
  %.not7 = icmp eq i32 %4, 0
  br i1 %.not7, label %._crit_edge, label %.lr.ph

.lr.ph:                                           ; preds = %2
  %5 = getelementptr inbounds nuw i8, ptr %0, i64 120
  %6 = getelementptr inbounds nuw i8, ptr %0, i64 128
  br label %9

7:                                                ; preds = %16
  %8 = add nuw nsw i32 %10, 1
  %exitcond = icmp eq i32 %10, 4
  br i1 %exitcond, label %._crit_edge, label %9, !llvm.loop !8

9:                                                ; preds = %.lr.ph, %7
  %10 = phi i32 [ 1, %.lr.ph ], [ %8, %7 ]
  %11 = tail call i32 @get_log_level() #10
  %12 = icmp sgt i32 %11, 4
  br i1 %12, label %13, label %16

13:                                               ; preds = %9
  %14 = load i32, ptr %5, align 8
  %15 = load i32, ptr %6, align 8
  tail call void (i32, ptr, ...) @log_var(i32 noundef 5, ptr noundef nonnull @.str.4, ptr noundef nonnull @__func__.proctrack_g_add, i32 noundef %14, i32 noundef %15, i32 noundef %1) #10
  br label %16

16:                                               ; preds = %13, %9
  %17 = tail call i32 @sleep(i32 noundef 1) #10
  %18 = load ptr, ptr getelementptr inbounds nuw (i8, ptr @ops, i64 8), align 8
  %19 = tail call i32 %18(ptr noundef %0, i32 noundef %1) #10
  %.not = icmp eq i32 %19, 0
  br i1 %.not, label %._crit_edge, label %7, !llvm.loop !8

._crit_edge:                                      ; preds = %16, %7, %2
  %.lcssa = phi i32 [ 0, %2 ], [ %19, %7 ], [ 0, %16 ]
  ret i32 %.lcssa
}